Certificate:
    Data:
        Version: 3 (0x2)
        Serial Number:
            48:75:16:b3:93:88:a3:07:ae:51:bd:6e:90:75:cc:b5
        Signature Algorithm: sha256WithRSAEncryption
        Issuer: CN=X-WRT NATCAP CA
        Validity
            Not Before: Oct 20 17:02:29 2019 GMT
            Not After : Nov  2 17:02:29 2047 GMT
        Subject: CN=server
        Subject Public Key Info:
            Public Key Algorithm: rsaEncryption
                RSA Public-Key: (2048 bit)
                Modulus:
                    00:c7:f4:42:f7:61:fd:5f:89:38:4b:56:77:95:ac:
                    8e:3e:91:75:37:7d:74:50:74:d8:72:a6:4a:50:aa:
                    2a:e6:70:39:52:c6:19:f5:44:dd:fc:c5:e3:bb:f3:
                    b9:43:bf:c6:7e:59:ad:ab:6f:e4:ba:6d:a4:70:59:
                    a7:51:bd:5b:2b:eb:0c:e9:37:2f:98:0d:15:2c:61:
                    b9:9b:fa:d1:52:d5:a7:c2:bc:14:11:92:72:2f:05:
                    26:29:07:e4:9c:dc:33:3d:03:1b:50:28:c4:ad:21:
                    57:54:54:9b:c7:e6:75:c3:da:45:11:11:94:ed:1c:
                    03:44:88:43:92:c4:ca:0b:e8:79:3f:aa:85:c1:47:
                    ea:3a:b9:40:6c:eb:d9:34:be:ce:e4:71:c1:00:6f:
                    ae:91:b5:bc:3f:31:16:bb:9e:19:bc:41:eb:d4:73:
                    06:2f:11:07:87:f1:6e:25:f1:88:6b:d3:0a:d9:61:
                    7a:f8:68:f5:24:6d:51:43:66:cd:02:ac:3f:ae:85:
                    eb:1c:fe:57:7b:de:2b:04:e8:f4:fe:5b:df:f6:e8:
                    ae:cf:f6:22:53:a8:c6:9b:c1:d8:6f:1b:9b:79:f4:
                    7e:f2:ba:14:d6:9f:e9:87:2e:fa:39:cf:90:7a:40:
                    35:4c:d9:99:d9:0b:08:d6:e0:ac:3a:92:2e:0a:9e:
                    0d:77
                Exponent: 65537 (0x10001)
        X509v3 extensions:
            X509v3 Basic Constraints: 
                CA:FALSE
            X509v3 Subject Key Identifier: 
                9C:EA:35:35:32:F8:92:87:65:B0:4D:C6:CF:56:E1:25:81:07:C4:EA
            X509v3 Authority Key Identifier: 
                keyid:F3:96:5B:B1:5F:4F:49:63:C4:5D:D8:32:C9:1B:25:98:CE:4B:73:CC
                DirName:/CN=X-WRT NATCAP CA
                serial:6B:83:28:4A:3F:09:8E:2B:33:11:F8:E3:1E:CB:C8:43:C0:93:A3:B4

            X509v3 Extended Key Usage: 
                TLS Web Server Authentication
            X509v3 Key Usage: 
                Digital Signature, Key Encipherment
            X509v3 Subject Alternative Name: 
                DNS:server
    Signature Algorithm: sha256WithRSAEncryption
         71:e5:12:8d:73:a4:df:e4:da:4d:3c:4e:be:c0:b1:51:6b:90:
         21:e7:5c:4c:c0:d2:7d:db:42:88:9c:7e:7d:19:48:f2:08:33:
         66:2f:24:f1:08:4a:a7:3c:82:ec:f2:26:31:b9:6e:12:4c:fc:
         42:7c:05:18:4c:55:d0:d1:e5:22:cc:cc:3f:89:bf:56:82:a1:
         9e:64:98:06:ed:3b:4b:c6:9d:d3:95:ae:06:08:1c:c3:6e:88:
         29:db:87:d5:c0:ad:e5:58:1a:5e:9e:dc:0a:c0:cf:b9:5f:63:
         3e:dd:72:ac:73:76:c1:7f:6a:44:55:68:99:ce:39:fa:31:0d:
         dc:c5:2f:43:bc:cb:b4:91:f0:2d:51:17:32:53:b7:05:d9:b0:
         c3:25:27:8c:71:b0:61:1d:4d:f3:bf:59:9e:66:8f:f1:b1:7e:
         21:9e:14:be:c7:ec:da:51:47:64:44:22:3a:59:93:e9:54:32:
         1f:2f:b8:95:87:05:06:b4:75:53:42:22:0f:6c:9b:83:3a:39:
         dd:af:f5:cb:cf:1f:c9:2a:23:4a:1a:bb:c6:b4:20:6c:82:2d:
         ae:87:14:f3:5e:37:37:48:8a:cf:02:4f:5d:54:75:5c:8f:a1:
         46:09:39:12:8e:77:0a:37:7a:7f:56:83:19:fc:26:99:95:b7:
         9b:59:4c:98
-----BEGIN CERTIFICATE-----
MIIDbzCCAlegAwIBAgIQSHUWs5OIoweuUb1ukHXMtTANBgkqhkiG9w0BAQsFADAa
MRgwFgYDVQQDDA9YLVdSVCBOQVRDQVAgQ0EwHhcNMTkxMDIwMTcwMjI5WhcNNDcx
MTAyMTcwMjI5WjARMQ8wDQYDVQQDDAZzZXJ2ZXIwggEiMA0GCSqGSIb3DQEBAQUA
A4IBDwAwggEKAoIBAQDH9EL3Yf1fiThLVneVrI4+kXU3fXRQdNhypkpQqirmcDlS
xhn1RN38xeO787lDv8Z+Wa2rb+S6baRwWadRvVsr6wzpNy+YDRUsYbmb+tFS1afC
vBQRknIvBSYpB+Sc3DM9AxtQKMStIVdUVJvH5nXD2kUREZTtHANEiEOSxMoL6Hk/
qoXBR+o6uUBs69k0vs7kccEAb66Rtbw/MRa7nhm8QevUcwYvEQeH8W4l8Yhr0wrZ
YXr4aPUkbVFDZs0CrD+uhesc/ld73isE6PT+W9/26K7P9iJTqMabwdhvG5t59H7y
uhTWn+mHLvo5z5B6QDVM2ZnZCwjW4Kw6ki4Kng13AgMBAAGjgbkwgbYwCQYDVR0T
BAIwADAdBgNVHQ4EFgQUnOo1NTL4kodlsE3Gz1bhJYEHxOowVQYDVR0jBE4wTIAU
85ZbsV9PSWPEXdgyyRslmM5Lc8yhHqQcMBoxGDAWBgNVBAMMD1gtV1JUIE5BVENB
UCBDQYIUa4MoSj8JjiszEfjjHsvIQ8CTo7QwEwYDVR0lBAwwCgYIKwYBBQUHAwEw
CwYDVR0PBAQDAgWgMBEGA1UdEQQKMAiCBnNlcnZlcjANBgkqhkiG9w0BAQsFAAOC
AQEAceUSjXOk3+TaTTxOvsCxUWuQIedcTMDSfdtCiJx+fRlI8ggzZi8k8QhKpzyC
7PImMbluEkz8QnwFGExV0NHlIszMP4m/VoKhnmSYBu07S8ad05WuBggcw26IKduH
1cCt5VgaXp7cCsDPuV9jPt1yrHN2wX9qRFVomc45+jEN3MUvQ7zLtJHwLVEXMlO3
BdmwwyUnjHGwYR1N879ZnmaP8bF+IZ4Uvsfs2lFHZEQiOlmT6VQyHy+4lYcFBrR1
U0IiD2ybgzo53a/1y88fySojShq7xrQgbIItrocU8143N0iKzwJPXVR1XI+hRgk5
Eo53Cjd6f1aDGfwmmZW3m1lMmA==
-----END CERTIFICATE-----
