Certificate:
    Data:
        Version: 3 (0x2)
        Serial Number:
            a4:92:c4:14:fa:37:02:22:ff:04:e2:43:d6:30:03:59
        Signature Algorithm: sha256WithRSAEncryption
        Issuer: CN=X-WRT NATCAP CA
        Validity
            Not Before: Oct 20 17:04:28 2019 GMT
            Not After : Nov  2 17:04:28 2047 GMT
        Subject: CN=client
        Subject Public Key Info:
            Public Key Algorithm: rsaEncryption
                RSA Public-Key: (2048 bit)
                Modulus:
                    00:a5:0a:e5:11:57:34:37:55:00:bc:af:3b:6a:25:
                    a7:3d:49:af:f6:88:e1:08:c0:fa:5c:5d:a1:ee:ba:
                    08:2f:83:aa:dc:8e:3c:7a:06:78:5f:29:09:ee:b4:
                    ee:5b:64:2c:d1:17:97:e0:3b:0a:d2:f0:da:3c:ab:
                    73:17:39:22:10:c6:10:45:3f:a9:6a:f9:b6:cd:dd:
                    16:91:7f:e0:d3:5f:b5:c1:4e:f8:93:cf:34:57:98:
                    5a:16:f7:f5:c0:2e:2b:a7:b5:6e:d1:ad:62:17:8e:
                    20:98:27:d6:ee:22:47:34:0b:44:8d:31:c5:8f:b2:
                    55:b6:9a:ec:12:50:9e:f9:ae:6d:10:00:ea:19:b9:
                    95:94:c8:e3:fa:92:b3:bb:32:0f:b1:3e:8c:38:c0:
                    18:d7:d1:e9:83:a8:60:13:ee:f3:a0:19:01:0c:eb:
                    ac:d6:ae:ed:7f:b8:a2:eb:3c:98:dc:25:f0:08:27:
                    c7:f4:68:c1:51:a8:54:d9:ed:a0:4c:03:f7:ea:e3:
                    06:d4:b3:67:3d:c8:ff:6f:cf:c4:14:bf:43:92:b8:
                    99:42:8f:5a:0a:a0:9a:65:2b:08:f6:0c:a6:de:8e:
                    a9:c4:d1:b2:48:fd:e2:e1:36:44:a7:05:4a:72:3c:
                    12:7c:f8:b9:d2:30:8d:57:60:f6:5b:f3:87:07:1d:
                    01:0f
                Exponent: 65537 (0x10001)
        X509v3 extensions:
            X509v3 Basic Constraints: 
                CA:FALSE
            X509v3 Subject Key Identifier: 
                C4:22:63:D1:3C:44:A3:5C:C7:18:A7:DB:01:C8:9D:94:B9:A2:95:7E
            X509v3 Authority Key Identifier: 
                keyid:F3:96:5B:B1:5F:4F:49:63:C4:5D:D8:32:C9:1B:25:98:CE:4B:73:CC
                DirName:/CN=X-WRT NATCAP CA
                serial:6B:83:28:4A:3F:09:8E:2B:33:11:F8:E3:1E:CB:C8:43:C0:93:A3:B4

            X509v3 Extended Key Usage: 
                TLS Web Client Authentication
            X509v3 Key Usage: 
                Digital Signature
    Signature Algorithm: sha256WithRSAEncryption
         3e:09:a2:3a:fd:5a:d7:b2:84:42:da:81:8c:a3:3b:24:7e:a7:
         1d:45:0f:dd:5b:ee:0e:b8:16:f4:46:8a:f8:60:5a:b3:dd:05:
         96:d6:c0:0f:6d:fe:b4:bd:00:b3:e3:2d:6e:61:98:45:27:7a:
         0f:0c:ec:6e:c4:3e:75:c2:35:04:cd:9f:a8:72:c8:7a:ed:03:
         ba:68:fe:7f:f0:e8:b0:9f:c9:7c:a4:e7:60:be:ac:5d:2e:f3:
         fd:96:44:df:5a:50:be:e4:8f:90:1e:05:14:e4:52:f2:c9:03:
         e3:0e:6f:ae:42:12:5f:07:81:e8:9b:86:bd:30:74:d7:db:e0:
         a5:05:a0:93:15:b8:c2:c5:b9:fc:66:e6:f9:92:b0:fb:dc:74:
         9a:5f:ef:13:14:01:2a:17:6b:3b:80:00:f2:aa:61:25:2f:9d:
         a5:2f:8c:db:a1:35:be:73:e0:ed:6b:ee:7d:47:f6:a0:3d:2e:
         4b:5c:1e:bc:a5:bb:d6:90:b3:19:56:50:91:1a:ad:41:af:04:
         03:04:4f:8a:2e:67:8e:19:5e:cc:2a:d3:a9:42:16:8b:ca:4d:
         79:ee:aa:bc:d1:50:37:bb:a3:b7:b8:8a:58:88:79:a3:4c:fe:
         06:c5:21:72:56:6c:e2:9f:38:71:0f:c8:fb:c7:27:bf:44:f6:
         25:75:cc:eb
-----BEGIN CERTIFICATE-----
MIIDXTCCAkWgAwIBAgIRAKSSxBT6NwIi/wTiQ9YwA1kwDQYJKoZIhvcNAQELBQAw
GjEYMBYGA1UEAwwPWC1XUlQgTkFUQ0FQIENBMB4XDTE5MTAyMDE3MDQyOFoXDTQ3
MTEwMjE3MDQyOFowETEPMA0GA1UEAwwGY2xpZW50MIIBIjANBgkqhkiG9w0BAQEF
AAOCAQ8AMIIBCgKCAQEApQrlEVc0N1UAvK87aiWnPUmv9ojhCMD6XF2h7roIL4Oq
3I48egZ4XykJ7rTuW2Qs0ReX4DsK0vDaPKtzFzkiEMYQRT+pavm2zd0WkX/g01+1
wU74k880V5haFvf1wC4rp7Vu0a1iF44gmCfW7iJHNAtEjTHFj7JVtprsElCe+a5t
EADqGbmVlMjj+pKzuzIPsT6MOMAY19Hpg6hgE+7zoBkBDOus1q7tf7ii6zyY3CXw
CCfH9GjBUahU2e2gTAP36uMG1LNnPcj/b8/EFL9DkriZQo9aCqCaZSsI9gym3o6p
xNGySP3i4TZEpwVKcjwSfPi50jCNV2D2W/OHBx0BDwIDAQABo4GmMIGjMAkGA1Ud
EwQCMAAwHQYDVR0OBBYEFMQiY9E8RKNcxxin2wHInZS5opV+MFUGA1UdIwROMEyA
FPOWW7FfT0ljxF3YMskbJZjOS3PMoR6kHDAaMRgwFgYDVQQDDA9YLVdSVCBOQVRD
QVAgQ0GCFGuDKEo/CY4rMxH44x7LyEPAk6O0MBMGA1UdJQQMMAoGCCsGAQUFBwMC
MAsGA1UdDwQEAwIHgDANBgkqhkiG9w0BAQsFAAOCAQEAPgmiOv1a17KEQtqBjKM7
JH6nHUUP3VvuDrgW9EaK+GBas90FltbAD23+tL0As+MtbmGYRSd6DwzsbsQ+dcI1
BM2fqHLIeu0Dumj+f/DosJ/JfKTnYL6sXS7z/ZZE31pQvuSPkB4FFORS8skD4w5v
rkISXweB6JuGvTB019vgpQWgkxW4wsW5/Gbm+ZKw+9x0ml/vExQBKhdrO4AA8qph
JS+dpS+M26E1vnPg7WvufUf2oD0uS1wevKW71pCzGVZQkRqtQa8EAwRPii5njhle
zCrTqUIWi8pNee6qvNFQN7ujt7iKWIh5o0z+BsUhclZs4p84cQ/I+8cnv0T2JXXM
6w==
-----END CERTIFICATE-----
